; Function Attrs: nounwind uwtable
define dso_local ptr @GetNonHistoricCatalogSnapshot(i32 noundef %0) local_unnamed_addr #0 {
  %2 = load ptr, ptr @CatalogSnapshot, align 8
  %.not = icmp eq ptr %2, null
  br i1 %.not, label %InvalidateCatalogSnapshot.exit.thread, label %3

3:                                                ; preds = %1
  %4 = tail call zeroext i1 @RelationInvalidatesSnapshotsOnly(i32 noundef %0) #18
  br i1 %4, label %InvalidateCatalogSnapshot.exit, label %5

5:                                                ; preds = %3
  %6 = tail call zeroext i1 @RelationHasSysCache(i32 noundef %0) #18
  br i1 %6, label %InvalidateCatalogSnapshot.exit, label %7

7:                                                ; preds = %5
  %8 = load ptr, ptr @CatalogSnapshot, align 8
  %.not.i = icmp eq ptr %8, null
  br i1 %.not.i, label %InvalidateCatalogSnapshot.exit.thread, label %9

9:                                                ; preds = %7
  %10 = getelementptr inbounds nuw i8, ptr %8, i64 72
  tail call void @pairingheap_remove(ptr noundef nonnull @RegisteredSnapshots, ptr noundef nonnull %10) #18
  store ptr null, ptr @CatalogSnapshot, align 8
  %11 = load ptr, ptr @ActiveSnapshot, align 8
  %.not.i.i = icmp eq ptr %11, null
  br i1 %.not.i.i, label %12, label %InvalidateCatalogSnapshot.exit.thread

12:                                               ; preds = %9
  %13 = load ptr, ptr getelementptr inbounds nuw (i8, ptr @RegisteredSnapshots, i64 16), align 8
  %14 = icmp eq ptr %13, null
  br i1 %14, label %.sink.split.i.i, label %15

15:                                               ; preds = %12
  %16 = tail call ptr @pairingheap_first(ptr noundef nonnull @RegisteredSnapshots) #18
  %17 = load ptr, ptr @MyProc, align 8
  %18 = getelementptr inbounds nuw i8, ptr %17, i64 56
  %19 = load i32, ptr %18, align 8
  %20 = getelementptr inbounds i8, ptr %16, i64 -68
  %21 = load i32, ptr %20, align 4
  %22 = tail call zeroext i1 @TransactionIdPrecedes(i32 noundef %19, i32 noundef %21) #18
  br i1 %22, label %23, label %InvalidateCatalogSnapshot.exit

23:                                               ; preds = %15
  %24 = load i32, ptr %20, align 4
  br label %.sink.split.i.i

.sink.split.i.i:                                  ; preds = %23, %12
  %.sink4.i.i = phi i32 [ %24, %23 ], [ 0, %12 ]
  store i32 %.sink4.i.i, ptr @TransactionXmin, align 4
  %25 = load ptr, ptr @MyProc, align 8
  %26 = getelementptr inbounds nuw i8, ptr %25, i64 56
  store i32 %.sink4.i.i, ptr %26, align 8
  br label %InvalidateCatalogSnapshot.exit

InvalidateCatalogSnapshot.exit:                   ; preds = %.sink.split.i.i, %15, %5, %3
  %.pr = load ptr, ptr @CatalogSnapshot, align 8
  %27 = icmp eq ptr %.pr, null
  br i1 %27, label %InvalidateCatalogSnapshot.exit.thread, label %30

InvalidateCatalogSnapshot.exit.thread:            ; preds = %1, %7, %9, %InvalidateCatalogSnapshot.exit
  %28 = tail call ptr @GetSnapshotData(ptr noundef nonnull @CatalogSnapshotData) #18
  store ptr %28, ptr @CatalogSnapshot, align 8
  %29 = getelementptr inbounds nuw i8, ptr %28, i64 72
  tail call void @pairingheap_add(ptr noundef nonnull @RegisteredSnapshots, ptr noundef nonnull %29) #18
  %.pre = load ptr, ptr @CatalogSnapshot, align 8
  br label %30

30:                                               ; preds = %InvalidateCatalogSnapshot.exit.thread, %InvalidateCatalogSnapshot.exit
  %31 = phi ptr [ %.pre, %InvalidateCatalogSnapshot.exit.thread ], [ %.pr, %InvalidateCatalogSnapshot.exit ]
  ret ptr %31
}